; ModuleID = '24/602.c'
source_filename = "24/602.c"
target datalayout = "e-m:e-p270:32:32-p271:32:32-p272:64:64-i64:64-f80:128-n8:16:32:64-S128"
target triple = "x86_64-pc-linux-gnu"

; Function Attrs: noinline nounwind uwtable
define dso_local i32 @main() #0 {
  %1 = alloca i32, align 4
  %2 = alloca [1000 x i8], align 16
  %3 = alloca i32, align 4
  %4 = alloca i32, align 4
  %5 = alloca [50 x [20 x i8]], align 16
  %6 = alloca [50 x [20 x i8]], align 16
  %7 = alloca i32, align 4
  %8 = alloca [50 x i32], align 16
  %9 = alloca [50 x i32], align 16
  %10 = alloca i32, align 4
  store i32 0, i32* %1, align 4
  %11 = getelementptr inbounds [1000 x i8], [1000 x i8]* %2, i64 0, i64 0
  %12 = call i32 (i8*, ...) bitcast (i32 (...)* @gets to i32 (i8*, ...)*)(i8* %11)
  store i32 0, i32* %3, align 4
  store i32 0, i32* %4, align 4
  %13 = bitcast [50 x [20 x i8]]* %5 to i8*
  call void @llvm.memset.p0i8.i64(i8* align 16 %13, i8 0, i64 1000, i1 false)
  %14 = bitcast [50 x [20 x i8]]* %6 to i8*
  call void @llvm.memset.p0i8.i64(i8* align 16 %14, i8 0, i64 1000, i1 false)
  %15 = getelementptr inbounds [1000 x i8], [1000 x i8]* %2, i64 0, i64 0
  %16 = call i64 @strlen(i8* %15) #5
  %17 = trunc i64 %16 to i32
  store i32 %17, i32* %10, align 4
  store i32 0, i32* %7, align 4
  br label %18

18:                                               ; preds = %60, %0
  %19 = load i32, i32* %7, align 4
  %20 = load i32, i32* %10, align 4
  %21 = icmp slt i32 %19, %20
  br i1 %21, label %22, label %63

22:                                               ; preds = %18
  %23 = load i32, i32* %7, align 4
  %24 = sext i32 %23 to i64
  %25 = getelementptr inbounds [1000 x i8], [1000 x i8]* %2, i64 0, i64 %24
  %26 = load i8, i8* %25, align 1
  %27 = sext i8 %26 to i32
  %28 = icmp eq i32 %27, 32
  br i1 %28, label %36, label %29

29:                                               ; preds = %22
  %30 = load i32, i32* %7, align 4
  %31 = sext i32 %30 to i64
  %32 = getelementptr inbounds [1000 x i8], [1000 x i8]* %2, i64 0, i64 %31
  %33 = load i8, i8* %32, align 1
  %34 = sext i8 %33 to i32
  %35 = icmp eq i32 %34, 0
  br i1 %35, label %36, label %39

36:                                               ; preds = %29, %22
  %37 = load i32, i32* %3, align 4
  %38 = add nsw i32 %37, 1
  store i32 %38, i32* %3, align 4
  store i32 0, i32* %4, align 4
  br label %39

39:                                               ; preds = %36, %29
  %40 = load i32, i32* %7, align 4
  %41 = sext i32 %40 to i64
  %42 = getelementptr inbounds [1000 x i8], [1000 x i8]* %2, i64 0, i64 %41
  %43 = load i8, i8* %42, align 1
  %44 = sext i8 %43 to i32
  %45 = icmp ne i32 %44, 32
  br i1 %45, label %46, label %59

46:                                               ; preds = %39
  %47 = load i32, i32* %7, align 4
  %48 = sext i32 %47 to i64
  %49 = getelementptr inbounds [1000 x i8], [1000 x i8]* %2, i64 0, i64 %48
  %50 = load i8, i8* %49, align 1
  %51 = load i32, i32* %3, align 4
  %52 = sext i32 %51 to i64
  %53 = getelementptr inbounds [50 x [20 x i8]], [50 x [20 x i8]]* %5, i64 0, i64 %52
  %54 = load i32, i32* %4, align 4
  %55 = sext i32 %54 to i64
  %56 = getelementptr inbounds [20 x i8], [20 x i8]* %53, i64 0, i64 %55
  store i8 %50, i8* %56, align 1
  %57 = load i32, i32* %4, align 4
  %58 = add nsw i32 %57, 1
  store i32 %58, i32* %4, align 4
  br label %59

59:                                               ; preds = %46, %39
  br label %60

60:                                               ; preds = %59
  %61 = load i32, i32* %7, align 4
  %62 = add nsw i32 %61, 1
  store i32 %62, i32* %7, align 4
  br label %18

63:                                               ; preds = %18
  store i32 0, i32* %7, align 4
  br label %64

64:                                               ; preds = %95, %63
  %65 = load i32, i32* %7, align 4
  %66 = load i32, i32* %3, align 4
  %67 = add nsw i32 %66, 1
  %68 = icmp slt i32 %65, %67
  br i1 %68, label %69, label %98

69:                                               ; preds = %64
  %70 = load i32, i32* %7, align 4
  %71 = sext i32 %70 to i64
  %72 = getelementptr inbounds [50 x [20 x i8]], [50 x [20 x i8]]* %5, i64 0, i64 %71
  %73 = getelementptr inbounds [20 x i8], [20 x i8]* %72, i64 0, i64 0
  %74 = call i64 @strlen(i8* %73) #5
  %75 = trunc i64 %74 to i32
  %76 = load i32, i32* %7, align 4
  %77 = sext i32 %76 to i64
  %78 = getelementptr inbounds [50 x i32], [50 x i32]* %8, i64 0, i64 %77
  store i32 %75, i32* %78, align 4
  %79 = load i32, i32* %7, align 4
  %80 = sext i32 %79 to i64
  %81 = getelementptr inbounds [50 x i32], [50 x i32]* %8, i64 0, i64 %80
  %82 = load i32, i32* %81, align 4
  %83 = load i32, i32* %7, align 4
  %84 = sext i32 %83 to i64
  %85 = getelementptr inbounds [50 x i32], [50 x i32]* %9, i64 0, i64 %84
  store i32 %82, i32* %85, align 4
  %86 = load i32, i32* %7, align 4
  %87 = sext i32 %86 to i64
  %88 = getelementptr inbounds [50 x [20 x i8]], [50 x [20 x i8]]* %6, i64 0, i64 %87
  %89 = getelementptr inbounds [20 x i8], [20 x i8]* %88, i64 0, i64 0
  %90 = load i32, i32* %7, align 4
  %91 = sext i32 %90 to i64
  %92 = getelementptr inbounds [50 x [20 x i8]], [50 x [20 x i8]]* %5, i64 0, i64 %91
  %93 = getelementptr inbounds [20 x i8], [20 x i8]* %92, i64 0, i64 0
  %94 = call i8* @strcpy(i8* %89, i8* %93) #6
  br label %95

95:                                               ; preds = %69
  %96 = load i32, i32* %7, align 4
  %97 = add nsw i32 %96, 1
  store i32 %97, i32* %7, align 4
  br label %64

98:                                               ; preds = %64
  store i32 0, i32* %7, align 4
  br label %99

99:                                               ; preds = %135, %98
  %100 = load i32, i32* %7, align 4
  %101 = load i32, i32* %3, align 4
  %102 = add nsw i32 %101, 1
  %103 = icmp slt i32 %100, %102
  br i1 %103, label %104, label %138

104:                                              ; preds = %99
  %105 = load i32, i32* %7, align 4
  %106 = sext i32 %105 to i64
  %107 = getelementptr inbounds [50 x i32], [50 x i32]* %8, i64 0, i64 %106
  %108 = load i32, i32* %107, align 4
  %109 = load i32, i32* %7, align 4
  %110 = add nsw i32 %109, 1
  %111 = sext i32 %110 to i64
  %112 = getelementptr inbounds [50 x i32], [50 x i32]* %8, i64 0, i64 %111
  %113 = load i32, i32* %112, align 4
  %114 = icmp sge i32 %108, %113
  br i1 %114, label %115, label %134

115:                                              ; preds = %104
  %116 = load i32, i32* %7, align 4
  %117 = sext i32 %116 to i64
  %118 = getelementptr inbounds [50 x i32], [50 x i32]* %8, i64 0, i64 %117
  %119 = load i32, i32* %118, align 4
  %120 = load i32, i32* %7, align 4
  %121 = add nsw i32 %120, 1
  %122 = sext i32 %121 to i64
  %123 = getelementptr inbounds [50 x i32], [50 x i32]* %8, i64 0, i64 %122
  store i32 %119, i32* %123, align 4
  %124 = load i32, i32* %7, align 4
  %125 = add nsw i32 %124, 1
  %126 = sext i32 %125 to i64
  %127 = getelementptr inbounds [50 x [20 x i8]], [50 x [20 x i8]]* %5, i64 0, i64 %126
  %128 = getelementptr inbounds [20 x i8], [20 x i8]* %127, i64 0, i64 0
  %129 = load i32, i32* %7, align 4
  %130 = sext i32 %129 to i64
  %131 = getelementptr inbounds [50 x [20 x i8]], [50 x [20 x i8]]* %5, i64 0, i64 %130
  %132 = getelementptr inbounds [20 x i8], [20 x i8]* %131, i64 0, i64 0
  %133 = call i8* @strcpy(i8* %128, i8* %132) #6
  br label %134

134:                                              ; preds = %115, %104
  br label %135

135:                                              ; preds = %134
  %136 = load i32, i32* %7, align 4
  %137 = add nsw i32 %136, 1
  store i32 %137, i32* %7, align 4
  br label %99

138:                                              ; preds = %99
  store i32 0, i32* %7, align 4
  br label %139

139:                                              ; preds = %175, %138
  %140 = load i32, i32* %7, align 4
  %141 = load i32, i32* %3, align 4
  %142 = add nsw i32 %141, 1
  %143 = icmp slt i32 %140, %142
  br i1 %143, label %144, label %178

144:                                              ; preds = %139
  %145 = load i32, i32* %7, align 4
  %146 = sext i32 %145 to i64
  %147 = getelementptr inbounds [50 x i32], [50 x i32]* %9, i64 0, i64 %146
  %148 = load i32, i32* %147, align 4
  %149 = load i32, i32* %7, align 4
  %150 = add nsw i32 %149, 1
  %151 = sext i32 %150 to i64
  %152 = getelementptr inbounds [50 x i32], [50 x i32]* %9, i64 0, i64 %151
  %153 = load i32, i32* %152, align 4
  %154 = icmp sle i32 %148, %153
  br i1 %154, label %155, label %174

155:                                              ; preds = %144
  %156 = load i32, i32* %7, align 4
  %157 = sext i32 %156 to i64
  %158 = getelementptr inbounds [50 x i32], [50 x i32]* %9, i64 0, i64 %157
  %159 = load i32, i32* %158, align 4
  %160 = load i32, i32* %7, align 4
  %161 = add nsw i32 %160, 1
  %162 = sext i32 %161 to i64
  %163 = getelementptr inbounds [50 x i32], [50 x i32]* %9, i64 0, i64 %162
  store i32 %159, i32* %163, align 4
  %164 = load i32, i32* %7, align 4
  %165 = add nsw i32 %164, 1
  %166 = sext i32 %165 to i64
  %167 = getelementptr inbounds [50 x [20 x i8]], [50 x [20 x i8]]* %6, i64 0, i64 %166
  %168 = getelementptr inbounds [20 x i8], [20 x i8]* %167, i64 0, i64 0
  %169 = load i32, i32* %7, align 4
  %170 = sext i32 %169 to i64
  %171 = getelementptr inbounds [50 x [20 x i8]], [50 x [20 x i8]]* %6, i64 0, i64 %170
  %172 = getelementptr inbounds [20 x i8], [20 x i8]* %171, i64 0, i64 0
  %173 = call i8* @strcpy(i8* %168, i8* %172) #6
  br label %174

174:                                              ; preds = %155, %144
  br label %175

175:                                              ; preds = %174
  %176 = load i32, i32* %7, align 4
  %177 = add nsw i32 %176, 1
  store i32 %177, i32* %7, align 4
  br label %139

178:                                              ; preds = %139
  %179 = load i32, i32* %3, align 4
  %180 = sext i32 %179 to i64
  %181 = getelementptr inbounds [50 x [20 x i8]], [50 x [20 x i8]]* %5, i64 0, i64 %180
  %182 = getelementptr inbounds [20 x i8], [20 x i8]* %181, i64 0, i64 0
  %183 = call i32 @puts(i8* %182)
  %184 = load i32, i32* %3, align 4
  %185 = sext i32 %184 to i64
  %186 = getelementptr inbounds [50 x [20 x i8]], [50 x [20 x i8]]* %6, i64 0, i64 %185
  %187 = getelementptr inbounds [20 x i8], [20 x i8]* %186, i64 0, i64 0
  %188 = call i32 @puts(i8* %187)
  ret i32 0
}

declare dso_local i32 @gets(...) #1

; Function Attrs: argmemonly nounwind willreturn
declare void @llvm.memset.p0i8.i64(i8* nocapture writeonly, i8, i64, i1 immarg) #2

; Function Attrs: nounwind readonly
declare dso_local i64 @strlen(i8*) #3

; Function Attrs: nounwind
declare dso_local i8* @strcpy(i8*, i8*) #4

declare dso_local i32 @puts(i8*) #1


!llvm.module.flags = !{!0}
!llvm.ident = !{!1}

!0 = !{i32 1, !"wchar_size", i32 4}
!1 = !{!"clang version 10.0.0-4ubuntu1 "}
